; Function Attrs: nounwind uwtable
define internal i32 @fold_bufhdr_merge(ptr noundef %0) #0 {
  %2 = getelementptr inbounds nuw i8, ptr %0, i64 186
  %3 = load i16, ptr %2, align 2, !tbaa !28
  %4 = icmp eq i16 %3, 2
  br i1 %4, label %5, label %60

5:                                                ; preds = %1
  %6 = getelementptr inbounds nuw i8, ptr %0, i64 184
  %7 = load i16, ptr %6, align 8, !tbaa !28
  %8 = zext i16 %7 to i32
  %9 = or disjoint i32 %8, 131072
  %10 = getelementptr inbounds nuw i8, ptr %0, i64 189
  %11 = load i8, ptr %10, align 1, !tbaa !28
  %12 = getelementptr inbounds nuw i8, ptr %0, i64 168
  %13 = load i32, ptr %12, align 8, !tbaa !4
  %14 = and i32 %13, 131072
  %.not.i = icmp eq i32 %14, 0
  br i1 %.not.i, label %.loopexit.i, label %15, !prof !33

15:                                               ; preds = %5
  %16 = getelementptr inbounds nuw i8, ptr %0, i64 402
  %17 = zext i8 %11 to i64
  %18 = getelementptr inbounds nuw [101 x i16], ptr %16, i64 0, i64 %17
  %spec.select46.i = tail call i16 @llvm.umax.i16(i16 %7, i16 2)
  %.039.in48.i = load i16, ptr %18, align 2, !tbaa !28
  %.not4449.i = icmp ult i16 %spec.select46.i, %.039.in48.i
  br i1 %.not4449.i, label %.lr.ph.i, label %.loopexit.i

.lr.ph.i:                                         ; preds = %15
  %19 = getelementptr inbounds nuw i8, ptr %0, i64 32
  %20 = load ptr, ptr %19, align 8, !tbaa !30
  br label %21

21:                                               ; preds = %31, %.lr.ph.i
  %.039.in50.i = phi i16 [ %.039.in48.i, %.lr.ph.i ], [ %.039.in.i, %31 ]
  %22 = zext i16 %.039.in50.i to i64
  %23 = getelementptr inbounds nuw %union.IRIns, ptr %20, i64 %22
  %24 = load i32, ptr %23, align 8, !tbaa !28
  %25 = icmp eq i32 %24, %9
  br i1 %25, label %.thread.i, label %31

.thread.i:                                        ; preds = %21
  %.039.le.i = zext i16 %.039.in50.i to i32
  %26 = getelementptr inbounds nuw i8, ptr %23, i64 4
  %27 = load i8, ptr %26, align 4, !tbaa !28
  %28 = zext i8 %27 to i32
  %29 = shl nuw i32 %28, 24
  %30 = or disjoint i32 %29, %.039.le.i
  br label %lj_opt_cse.exit

31:                                               ; preds = %21
  %32 = getelementptr inbounds nuw i8, ptr %23, i64 6
  %.039.in.i = load i16, ptr %32, align 2, !tbaa !28
  %.not44.i = icmp ult i16 %spec.select46.i, %.039.in.i
  br i1 %.not44.i, label %21, label %.loopexit.i, !llvm.loop !34

.loopexit.i:                                      ; preds = %31, %15, %5
  %33 = getelementptr inbounds nuw i8, ptr %0, i64 12
  %34 = load i32, ptr %33, align 4, !tbaa !36
  %35 = getelementptr inbounds nuw i8, ptr %0, i64 336
  %36 = load i32, ptr %35, align 8, !tbaa !37
  %.not.i.i = icmp ult i32 %34, %36
  br i1 %.not.i.i, label %lj_ir_nextins.exit.i, label %37, !prof !27

37:                                               ; preds = %.loopexit.i
  tail call void @lj_ir_growtop(ptr noundef nonnull %0) #12
  br label %lj_ir_nextins.exit.i

lj_ir_nextins.exit.i:                             ; preds = %37, %.loopexit.i
  %38 = add i32 %34, 1
  store i32 %38, ptr %33, align 4, !tbaa !36
  %39 = getelementptr inbounds nuw i8, ptr %0, i64 32
  %40 = load ptr, ptr %39, align 8, !tbaa !30
  %41 = zext i32 %34 to i64
  %42 = getelementptr inbounds nuw %union.IRIns, ptr %40, i64 %41
  %43 = getelementptr inbounds nuw i8, ptr %0, i64 402
  %44 = zext i8 %11 to i64
  %45 = getelementptr inbounds nuw [101 x i16], ptr %43, i64 0, i64 %44
  %46 = load i16, ptr %45, align 2, !tbaa !38
  %47 = getelementptr inbounds nuw i8, ptr %42, i64 6
  store i16 %46, ptr %47, align 2, !tbaa !28
  store i32 %9, ptr %42, align 8, !tbaa !28
  %48 = trunc i32 %34 to i16
  store i16 %48, ptr %45, align 2, !tbaa !38
  %49 = load i8, ptr %10, align 1, !tbaa !28
  %50 = getelementptr inbounds nuw i8, ptr %42, i64 5
  store i8 %49, ptr %50, align 1, !tbaa !28
  %51 = getelementptr inbounds nuw i8, ptr %0, i64 188
  %52 = load i8, ptr %51, align 4, !tbaa !28
  %53 = getelementptr inbounds nuw i8, ptr %0, i64 182
  %54 = load i8, ptr %53, align 2, !tbaa !39
  %55 = or i8 %54, %52
  store i8 %55, ptr %53, align 2, !tbaa !39
  %56 = getelementptr inbounds nuw i8, ptr %42, i64 4
  store i8 %52, ptr %56, align 4, !tbaa !28
  %57 = zext i8 %52 to i32
  %58 = shl nuw i32 %57, 24
  %59 = add i32 %58, %34
  br label %lj_opt_cse.exit

60:                                               ; preds = %1
  %61 = tail call i32 @lj_ir_emit(ptr noundef nonnull %0) #12
  br label %lj_opt_cse.exit

lj_opt_cse.exit:                                  ; preds = %lj_ir_nextins.exit.i, %.thread.i, %60
  %62 = phi i32 [ %61, %60 ], [ %59, %lj_ir_nextins.exit.i ], [ %30, %.thread.i ]
  ret i32 %62
}